target datalayout = "e-m:e-p270:32:32-p271:32:32-p272:64:64-i64:64-i128:128-f80:128-n8:16:32:64-S128"
target triple = "x86_64-pc-linux-gnu"

%struct.HeapTupleData = type { i32, %struct.ItemPointerData, i32, ptr }
%struct.ItemPointerData = type { %struct.BlockIdData, i16 }
%struct.BlockIdData = type { i16, i16 }
%struct.HeapTupleHeaderData = type { %union.anon.1, %struct.ItemPointerData, i16, i16, i8, [0 x i8] }
%union.anon.1 = type { %struct.HeapTupleFields }
%struct.HeapTupleFields = type { i32, i32, %union.anon.2 }
%union.anon.2 = type { i32 }
%struct.MultiXactMember = type { i32, i32 }

@.str.1 = private unnamed_addr constant [9 x i8] c"heapam.c\00", align 1
@TransactionXmin = external global i32, align 4
@.str.26 = private unnamed_addr constant [60 x i8] c"unrecognized return value from HeapTupleSatisfiesVacuum: %u\00", align 1
@__func__.HeapCheckForSerializableConflictOut = private unnamed_addr constant [36 x i8] c"HeapCheckForSerializableConflictOut\00", align 1

; Function Attrs: nounwind uwtable
define internal i32 @MultiXactIdGetUpdateXid(i32 noundef %0, i16 noundef zeroext %1) #0 {
  %3 = alloca i32, align 4
  %4 = alloca i16, align 2
  %5 = alloca i32, align 4
  %6 = alloca ptr, align 8
  %7 = alloca i32, align 4
  %8 = alloca i32, align 4
  store i32 %0, ptr %3, align 4
  store i16 %1, ptr %4, align 2
  call void @llvm.lifetime.start.p0(i64 4, ptr %5) #10
  store i32 0, ptr %5, align 4
  call void @llvm.lifetime.start.p0(i64 8, ptr %6) #10
  call void @llvm.lifetime.start.p0(i64 4, ptr %7) #10
  %9 = load i32, ptr %3, align 4
  %10 = call i32 @GetMultiXactIdMembers(i32 noundef %9, ptr noundef %6, i1 noundef zeroext false, i1 noundef zeroext false)
  store i32 %10, ptr %7, align 4
  %11 = load i32, ptr %7, align 4
  %12 = icmp sgt i32 %11, 0
  br i1 %12, label %13, label %39

13:                                               ; preds = %2
  call void @llvm.lifetime.start.p0(i64 4, ptr %8) #10
  store i32 0, ptr %8, align 4
  br label %14

14:                                               ; preds = %34, %13
  %15 = load i32, ptr %8, align 4
  %16 = load i32, ptr %7, align 4
  %17 = icmp slt i32 %15, %16
  br i1 %17, label %18, label %37

18:                                               ; preds = %14
  %19 = load ptr, ptr %6, align 8
  %20 = load i32, ptr %8, align 4
  %21 = sext i32 %20 to i64
  %22 = getelementptr inbounds %struct.MultiXactMember, ptr %19, i64 %21
  %23 = getelementptr inbounds nuw %struct.MultiXactMember, ptr %22, i32 0, i32 1
  %24 = load i32, ptr %23, align 4
  %25 = icmp ugt i32 %24, 3
  br i1 %25, label %27, label %26

26:                                               ; preds = %18
  br label %34

27:                                               ; preds = %18
  %28 = load ptr, ptr %6, align 8
  %29 = load i32, ptr %8, align 4
  %30 = sext i32 %29 to i64
  %31 = getelementptr inbounds %struct.MultiXactMember, ptr %28, i64 %30
  %32 = getelementptr inbounds nuw %struct.MultiXactMember, ptr %31, i32 0, i32 0
  %33 = load i32, ptr %32, align 4
  store i32 %33, ptr %5, align 4
  br label %37

34:                                               ; preds = %26
  %35 = load i32, ptr %8, align 4
  %36 = add i32 %35, 1
  store i32 %36, ptr %8, align 4
  br label %14, !llvm.loop !29

37:                                               ; preds = %27, %14
  %38 = load ptr, ptr %6, align 8
  call void @pfree(ptr noundef %38)
  call void @llvm.lifetime.end.p0(i64 4, ptr %8) #10
  br label %39

39:                                               ; preds = %37, %2
  %40 = load i32, ptr %5, align 4
  call void @llvm.lifetime.end.p0(i64 4, ptr %7) #10
  call void @llvm.lifetime.end.p0(i64 8, ptr %6) #10
  call void @llvm.lifetime.end.p0(i64 4, ptr %5) #10
  ret i32 %40
}

; Function Attrs: inlinehint nounwind uwtable
define internal i32 @HeapTupleHeaderGetRawXmax(ptr noundef %0) #3 {
  %2 = alloca ptr, align 8
  store ptr %0, ptr %2, align 8
  %3 = load ptr, ptr %2, align 8
  %4 = getelementptr inbounds nuw %struct.HeapTupleHeaderData, ptr %3, i32 0, i32 0
  %5 = getelementptr inbounds nuw %struct.HeapTupleFields, ptr %4, i32 0, i32 1
  %6 = load i32, ptr %5, align 4
  ret i32 %6
}

; Function Attrs: nounwind uwtable
define dso_local i32 @HeapTupleGetUpdateXid(ptr noundef %0) #0 {
  %2 = alloca ptr, align 8
  store ptr %0, ptr %2, align 8
  %3 = load ptr, ptr %2, align 8
  %4 = call i32 @HeapTupleHeaderGetRawXmax(ptr noundef %3)
  %5 = load ptr, ptr %2, align 8
  %6 = getelementptr inbounds nuw %struct.HeapTupleHeaderData, ptr %5, i32 0, i32 3
  %7 = load i16, ptr %6, align 4
  %8 = call i32 @MultiXactIdGetUpdateXid(i32 noundef %4, i16 noundef zeroext %7)
  ret i32 %8
}

; Function Attrs: inlinehint nounwind uwtable
define internal i32 @HeapTupleHeaderGetRawXmin(ptr noundef %0) #3 {
  %2 = alloca ptr, align 8
  store ptr %0, ptr %2, align 8
  %3 = load ptr, ptr %2, align 8
  %4 = getelementptr inbounds nuw %struct.HeapTupleHeaderData, ptr %3, i32 0, i32 0
  %5 = getelementptr inbounds nuw %struct.HeapTupleFields, ptr %4, i32 0, i32 0
  %6 = load i32, ptr %5, align 4
  ret i32 %6
}

; Function Attrs: inlinehint nounwind uwtable
define internal zeroext i1 @HeapTupleHeaderXminFrozen(ptr noundef %0) #3 {
  %2 = alloca ptr, align 8
  store ptr %0, ptr %2, align 8
  %3 = load ptr, ptr %2, align 8
  %4 = getelementptr inbounds nuw %struct.HeapTupleHeaderData, ptr %3, i32 0, i32 3
  %5 = load i16, ptr %4, align 4
  %6 = zext i16 %5 to i32
  %7 = and i32 %6, 768
  %8 = icmp eq i32 %7, 768
  ret i1 %8
}

; Function Attrs: inlinehint nounwind uwtable
define internal i32 @HeapTupleHeaderGetUpdateXid(ptr noundef %0) #3 {
  %2 = alloca i32, align 4
  %3 = alloca ptr, align 8
  store ptr %0, ptr %3, align 8
  %4 = load ptr, ptr %3, align 8
  %5 = getelementptr inbounds nuw %struct.HeapTupleHeaderData, ptr %4, i32 0, i32 3
  %6 = load i16, ptr %5, align 4
  %7 = zext i16 %6 to i32
  %8 = and i32 %7, 2048
  %9 = icmp ne i32 %8, 0
  br i1 %9, label %27, label %10

10:                                               ; preds = %1
  %11 = load ptr, ptr %3, align 8
  %12 = getelementptr inbounds nuw %struct.HeapTupleHeaderData, ptr %11, i32 0, i32 3
  %13 = load i16, ptr %12, align 4
  %14 = zext i16 %13 to i32
  %15 = and i32 %14, 4096
  %16 = icmp ne i32 %15, 0
  br i1 %16, label %17, label %27

17:                                               ; preds = %10
  %18 = load ptr, ptr %3, align 8
  %19 = getelementptr inbounds nuw %struct.HeapTupleHeaderData, ptr %18, i32 0, i32 3
  %20 = load i16, ptr %19, align 4
  %21 = zext i16 %20 to i32
  %22 = and i32 %21, 128
  %23 = icmp ne i32 %22, 0
  br i1 %23, label %27, label %24

24:                                               ; preds = %17
  %25 = load ptr, ptr %3, align 8
  %26 = call i32 @HeapTupleGetUpdateXid(ptr noundef %25)
  store i32 %26, ptr %2, align 4
  br label %30

27:                                               ; preds = %17, %10, %1
  %28 = load ptr, ptr %3, align 8
  %29 = call i32 @HeapTupleHeaderGetRawXmax(ptr noundef %28)
  store i32 %29, ptr %2, align 4
  br label %30

30:                                               ; preds = %27, %24
  %31 = load i32, ptr %2, align 4
  ret i32 %31
}

; Function Attrs: inlinehint nounwind uwtable
define internal i32 @HeapTupleHeaderGetXmin(ptr noundef %0) #3 {
  %2 = alloca ptr, align 8
  store ptr %0, ptr %2, align 8
  %3 = load ptr, ptr %2, align 8
  %4 = call zeroext i1 @HeapTupleHeaderXminFrozen(ptr noundef %3)
  br i1 %4, label %5, label %6

5:                                                ; preds = %1
  br label %9

6:                                                ; preds = %1
  %7 = load ptr, ptr %2, align 8
  %8 = call i32 @HeapTupleHeaderGetRawXmin(ptr noundef %7)
  br label %9

9:                                                ; preds = %6, %5
  %10 = phi i32 [ 2, %5 ], [ %8, %6 ]
  ret i32 %10
}

; Function Attrs: nounwind uwtable
define dso_local void @HeapCheckForSerializableConflictOut(i1 noundef zeroext %0, ptr noundef %1, ptr noundef %2, i32 noundef %3, ptr noundef %4) #0 {
  %6 = alloca i8, align 1
  %7 = alloca ptr, align 8
  %8 = alloca ptr, align 8
  %9 = alloca i32, align 4
  %10 = alloca ptr, align 8
  %11 = alloca i32, align 4
  %12 = alloca i32, align 4
  %13 = alloca i32, align 4
  %14 = zext i1 %0 to i8
  store i8 %14, ptr %6, align 1
  store ptr %1, ptr %7, align 8
  store ptr %2, ptr %8, align 8
  store i32 %3, ptr %9, align 4
  store ptr %4, ptr %10, align 8
  call void @llvm.lifetime.start.p0(i64 4, ptr %11) #10
  call void @llvm.lifetime.start.p0(i64 4, ptr %12) #10
  %15 = load ptr, ptr %7, align 8
  %16 = load ptr, ptr %10, align 8
  %17 = call zeroext i1 @CheckForSerializableConflictOutNeeded(ptr noundef %15, ptr noundef %16)
  br i1 %17, label %19, label %18

18:                                               ; preds = %5
  store i32 1, ptr %13, align 4
  br label %87

19:                                               ; preds = %5
  %20 = load ptr, ptr %8, align 8
  %21 = load i32, ptr @TransactionXmin, align 4
  %22 = load i32, ptr %9, align 4
  %23 = call i32 @HeapTupleSatisfiesVacuum(ptr noundef %20, i32 noundef %21, i32 noundef %22)
  store i32 %23, ptr %12, align 4
  %24 = load i32, ptr %12, align 4
  switch i32 %24, label %59 [
    i32 1, label %25
    i32 2, label %34
    i32 4, label %34
    i32 3, label %53
    i32 0, label %58
  ]

25:                                               ; preds = %19
  %26 = load i8, ptr %6, align 1, !range !4, !noundef !5
  %27 = trunc i8 %26 to i1
  br i1 %27, label %28, label %29

28:                                               ; preds = %25
  store i32 1, ptr %13, align 4
  br label %87

29:                                               ; preds = %25
  %30 = load ptr, ptr %8, align 8
  %31 = getelementptr inbounds nuw %struct.HeapTupleData, ptr %30, i32 0, i32 3
  %32 = load ptr, ptr %31, align 8
  %33 = call i32 @HeapTupleHeaderGetXmin(ptr noundef %32)
  store i32 %33, ptr %11, align 4
  br label %71

34:                                               ; preds = %19, %19
  %35 = load i8, ptr %6, align 1, !range !4, !noundef !5
  %36 = trunc i8 %35 to i1
  br i1 %36, label %37, label %42

37:                                               ; preds = %34
  %38 = load ptr, ptr %8, align 8
  %39 = getelementptr inbounds nuw %struct.HeapTupleData, ptr %38, i32 0, i32 3
  %40 = load ptr, ptr %39, align 8
  %41 = call i32 @HeapTupleHeaderGetUpdateXid(ptr noundef %40)
  store i32 %41, ptr %11, align 4
  br label %47

42:                                               ; preds = %34
  %43 = load ptr, ptr %8, align 8
  %44 = getelementptr inbounds nuw %struct.HeapTupleData, ptr %43, i32 0, i32 3
  %45 = load ptr, ptr %44, align 8
  %46 = call i32 @HeapTupleHeaderGetXmin(ptr noundef %45)
  store i32 %46, ptr %11, align 4
  br label %47

47:                                               ; preds = %42, %37
  %48 = load i32, ptr %11, align 4
  %49 = load i32, ptr @TransactionXmin, align 4
  %50 = call zeroext i1 @TransactionIdPrecedes(i32 noundef %48, i32 noundef %49)
  br i1 %50, label %51, label %52

51:                                               ; preds = %47
  store i32 1, ptr %13, align 4
  br label %87

52:                                               ; preds = %47
  br label %71

53:                                               ; preds = %19
  %54 = load ptr, ptr %8, align 8
  %55 = getelementptr inbounds nuw %struct.HeapTupleData, ptr %54, i32 0, i32 3
  %56 = load ptr, ptr %55, align 8
  %57 = call i32 @HeapTupleHeaderGetXmin(ptr noundef %56)
  store i32 %57, ptr %11, align 4
  br label %71

58:                                               ; preds = %19
  store i32 1, ptr %13, align 4
  br label %87

59:                                               ; preds = %19
  br label %60

60:                                               ; preds = %59
  br i1 true, label %61, label %63

61:                                               ; preds = %60
  %62 = call zeroext i1 @errstart_cold(i32 noundef 21, ptr noundef null) #11
  br i1 %62, label %65, label %68

63:                                               ; preds = %60
  %64 = call zeroext i1 @errstart(i32 noundef 21, ptr noundef null)
  br i1 %64, label %65, label %68

65:                                               ; preds = %63, %61
  %66 = load i32, ptr %12, align 4
  %67 = call i32 (ptr, ...) @errmsg_internal(ptr noundef @.str.26, i32 noundef %66)
  call void @errfinish(ptr noundef @.str.1, i32 noundef 9207, ptr noundef @__func__.HeapCheckForSerializableConflictOut)
  br label %68

68:                                               ; preds = %65, %63, %61
  unreachable

69:                                               ; No predecessors!
  br label %70

70:                                               ; preds = %69
  store i32 0, ptr %11, align 4
  br label %71

71:                                               ; preds = %70, %53, %52, %29
  %72 = load i32, ptr %11, align 4
  %73 = call i32 @GetTopTransactionIdIfAny()
  %74 = icmp eq i32 %72, %73
  br i1 %74, label %75, label %76

75:                                               ; preds = %71
  store i32 1, ptr %13, align 4
  br label %87

76:                                               ; preds = %71
  %77 = load i32, ptr %11, align 4
  %78 = call i32 @SubTransGetTopmostTransaction(i32 noundef %77)
  store i32 %78, ptr %11, align 4
  %79 = load i32, ptr %11, align 4
  %80 = load i32, ptr @TransactionXmin, align 4
  %81 = call zeroext i1 @TransactionIdPrecedes(i32 noundef %79, i32 noundef %80)
  br i1 %81, label %82, label %83

82:                                               ; preds = %76
  store i32 1, ptr %13, align 4
  br label %87

83:                                               ; preds = %76
  %84 = load ptr, ptr %7, align 8
  %85 = load i32, ptr %11, align 4
  %86 = load ptr, ptr %10, align 8
  call void @CheckForSerializableConflictOut(ptr noundef %84, i32 noundef %85, ptr noundef %86)
  store i32 0, ptr %13, align 4
  br label %87

87:                                               ; preds = %83, %82, %75, %58, %51, %28, %18
  call void @llvm.lifetime.end.p0(i64 4, ptr %12) #10
  call void @llvm.lifetime.end.p0(i64 4, ptr %11) #10
  %88 = load i32, ptr %13, align 4
  switch i32 %88, label %90 [
    i32 0, label %89
    i32 1, label %89
  ]

89:                                               ; preds = %87, %87
  ret void

90:                                               ; preds = %87
  unreachable
}