; Function Attrs: nounwind uwtable
define dso_local void @HeapCheckForSerializableConflictOut(i1 noundef zeroext %0, ptr noundef %1, ptr noundef %2, i32 noundef %3, ptr noundef %4) local_unnamed_addr #2 {
  %6 = alloca ptr, align 8
  %7 = tail call zeroext i1 @CheckForSerializableConflictOutNeeded(ptr noundef %1, ptr noundef %4) #13
  br i1 %7, label %8, label %60

8:                                                ; preds = %5
  %9 = load i32, ptr @TransactionXmin, align 4
  %10 = tail call i32 @HeapTupleSatisfiesVacuum(ptr noundef %2, i32 noundef %9, i32 noundef %3) #13
  switch i32 %10, label %50 [
    i32 1, label %11
    i32 2, label %18
    i32 4, label %18
    i32 3, label %44
    i32 0, label %60
  ]

11:                                               ; preds = %8
  br i1 %0, label %60, label %12

12:                                               ; preds = %11
  %13 = getelementptr inbounds nuw i8, ptr %2, i64 16
  %14 = load ptr, ptr %13, align 8
  %15 = getelementptr i8, ptr %14, i64 20
  %.val.i = load i16, ptr %15, align 4
  %16 = and i16 %.val.i, 768
  %17 = icmp eq i16 %16, 768
  br i1 %17, label %HeapTupleHeaderGetXmin.exit, label %HeapTupleHeaderGetXmin.exit.sink.split

18:                                               ; preds = %8, %8
  %19 = getelementptr inbounds nuw i8, ptr %2, i64 16
  %20 = load ptr, ptr %19, align 8
  %21 = getelementptr i8, ptr %20, i64 20
  %22 = load i16, ptr %21, align 4
  br i1 %0, label %23, label %38

23:                                               ; preds = %18
  %24 = and i16 %22, 6272
  %or.cond7.i = icmp eq i16 %24, 4096
  %25 = getelementptr i8, ptr %20, i64 4
  %.val.i.i = load i32, ptr %25, align 4
  br i1 %or.cond7.i, label %26, label %HeapTupleHeaderGetUpdateXid.exit

26:                                               ; preds = %23
  call void @llvm.lifetime.start.p0(i64 8, ptr nonnull %6) #13
  %27 = call i32 @GetMultiXactIdMembers(i32 noundef %.val.i.i, ptr noundef nonnull %6, i1 noundef zeroext false, i1 noundef zeroext false) #13
  %28 = icmp sgt i32 %27, 0
  br i1 %28, label %.preheader.i.i.i, label %HeapTupleGetUpdateXid.exit.i

.preheader.i.i.i:                                 ; preds = %26
  %29 = load ptr, ptr %6, align 8
  %wide.trip.count.i.i.i = zext nneg i32 %27 to i64
  br label %31

30:                                               ; preds = %31
  %indvars.iv.next.i.i.i = add nuw nsw i64 %indvars.iv.i.i.i, 1
  %exitcond.not.i.i.i = icmp eq i64 %indvars.iv.next.i.i.i, %wide.trip.count.i.i.i
  br i1 %exitcond.not.i.i.i, label %.loopexit.i.i.i, label %31, !llvm.loop !15

31:                                               ; preds = %30, %.preheader.i.i.i
  %indvars.iv.i.i.i = phi i64 [ 0, %.preheader.i.i.i ], [ %indvars.iv.next.i.i.i, %30 ]
  %32 = getelementptr inbounds nuw %struct.MultiXactMember, ptr %29, i64 %indvars.iv.i.i.i
  %33 = getelementptr inbounds nuw i8, ptr %32, i64 4
  %34 = load i32, ptr %33, align 4
  %35 = icmp ugt i32 %34, 3
  br i1 %35, label %36, label %30

36:                                               ; preds = %31
  %37 = load i32, ptr %32, align 4
  br label %.loopexit.i.i.i

.loopexit.i.i.i:                                  ; preds = %30, %36
  %.1.i.i.i = phi i32 [ %37, %36 ], [ 0, %30 ]
  call void @pfree(ptr noundef nonnull %29) #13
  br label %HeapTupleGetUpdateXid.exit.i

HeapTupleGetUpdateXid.exit.i:                     ; preds = %.loopexit.i.i.i, %26
  %.08.i.i.i = phi i32 [ %.1.i.i.i, %.loopexit.i.i.i ], [ 0, %26 ]
  call void @llvm.lifetime.end.p0(i64 8, ptr nonnull %6) #13
  br label %HeapTupleHeaderGetUpdateXid.exit

38:                                               ; preds = %18
  %39 = and i16 %22, 768
  %40 = icmp eq i16 %39, 768
  br i1 %40, label %HeapTupleHeaderGetUpdateXid.exit, label %41

41:                                               ; preds = %38
  %.val2.i19 = load i32, ptr %20, align 4
  br label %HeapTupleHeaderGetUpdateXid.exit

HeapTupleHeaderGetUpdateXid.exit:                 ; preds = %41, %38, %HeapTupleGetUpdateXid.exit.i, %23
  %.1 = phi i32 [ %.08.i.i.i, %HeapTupleGetUpdateXid.exit.i ], [ %.val.i.i, %23 ], [ %.val2.i19, %41 ], [ 2, %38 ]
  %42 = load i32, ptr @TransactionXmin, align 4
  %43 = call zeroext i1 @TransactionIdPrecedes(i32 noundef %.1, i32 noundef %42) #13
  br i1 %43, label %60, label %HeapTupleHeaderGetXmin.exit

44:                                               ; preds = %8
  %45 = getelementptr inbounds nuw i8, ptr %2, i64 16
  %46 = load ptr, ptr %45, align 8
  %47 = getelementptr i8, ptr %46, i64 20
  %.val.i21 = load i16, ptr %47, align 4
  %48 = and i16 %.val.i21, 768
  %49 = icmp eq i16 %48, 768
  br i1 %49, label %HeapTupleHeaderGetXmin.exit, label %HeapTupleHeaderGetXmin.exit.sink.split

50:                                               ; preds = %8
  %51 = tail call zeroext i1 @errstart_cold(i32 noundef 21, ptr noundef null) #14
  tail call void @llvm.assume(i1 %51)
  %52 = tail call i32 (ptr, ...) @errmsg_internal(ptr noundef nonnull @.str.26, i32 noundef %10) #13
  tail call void @errfinish(ptr noundef nonnull @.str.1, i32 noundef 9207, ptr noundef nonnull @__func__.HeapCheckForSerializableConflictOut) #13
  unreachable

HeapTupleHeaderGetXmin.exit.sink.split:           ; preds = %44, %12
  %.sink = phi ptr [ %14, %12 ], [ %46, %44 ]
  %.val2.i22 = load i32, ptr %.sink, align 4
  br label %HeapTupleHeaderGetXmin.exit

HeapTupleHeaderGetXmin.exit:                      ; preds = %HeapTupleHeaderGetXmin.exit.sink.split, %44, %12, %HeapTupleHeaderGetUpdateXid.exit
  %.0 = phi i32 [ %.1, %HeapTupleHeaderGetUpdateXid.exit ], [ 2, %12 ], [ 2, %44 ], [ %.val2.i22, %HeapTupleHeaderGetXmin.exit.sink.split ]
  %53 = call i32 @GetTopTransactionIdIfAny() #13
  %54 = icmp eq i32 %.0, %53
  br i1 %54, label %60, label %55

55:                                               ; preds = %HeapTupleHeaderGetXmin.exit
  %56 = call i32 @SubTransGetTopmostTransaction(i32 noundef %.0) #13
  %57 = load i32, ptr @TransactionXmin, align 4
  %58 = call zeroext i1 @TransactionIdPrecedes(i32 noundef %56, i32 noundef %57) #13
  br i1 %58, label %60, label %59

59:                                               ; preds = %55
  call void @CheckForSerializableConflictOut(ptr noundef %1, i32 noundef %56, ptr noundef %4) #13
  br label %60

60:                                               ; preds = %55, %HeapTupleHeaderGetXmin.exit, %8, %HeapTupleHeaderGetUpdateXid.exit, %11, %5, %59
  ret void
}